target datalayout = "e-m:e-p270:32:32-p271:32:32-p272:64:64-i64:64-i128:128-f80:128-n8:16:32:64-S128"
target triple = "x86_64-pc-linux-gnu"

%struct.OnigEncodingTypeST = type { ptr, ptr, i32, i32, ptr, ptr, ptr, ptr, ptr, ptr, ptr, ptr, ptr, ptr, ptr, ptr, ptr, i32, i32 }
%struct._Node = type { %union.anon }
%union.anon = type { %struct.StrNode }
%struct.StrNode = type { %struct.NodeBase, ptr, ptr, i32, i32, [24 x i8] }
%struct.NodeBase = type { i32 }
%struct.ConsAltNode = type { %struct.NodeBase, ptr, ptr }
%struct.ScanEnv = type { i32, i32, ptr, ptr, i32, i32, i32, i32, ptr, ptr, ptr, ptr, ptr, ptr, i32, i32, i32, i32, [8 x ptr], ptr, i32, i32, ptr, i32 }
%struct.IApplyCaseFoldArg = type { ptr, ptr, ptr, ptr, ptr }

; Function Attrs: alwaysinline nounwind
define internal ptr @memcpy.inline(ptr noalias nonnull %0, ptr noalias nonnull %1, i64 %2) #2 {
  %4 = alloca ptr, align 8
  %5 = alloca ptr, align 8
  %6 = alloca i64, align 8
  store ptr %0, ptr %4, align 8, !tbaa !12
  store ptr %1, ptr %5, align 8, !tbaa !12
  store i64 %2, ptr %6, align 8, !tbaa !15
  %7 = load ptr, ptr %4, align 8, !tbaa !12
  %8 = load ptr, ptr %5, align 8, !tbaa !12
  %9 = load i64, ptr %6, align 8, !tbaa !15
  %10 = load ptr, ptr %4, align 8, !tbaa !12
  %11 = call i64 @llvm.objectsize.i64.p0(ptr %10, i1 false, i1 true, i1 false)
  %12 = call ptr @__memcpy_chk(ptr noundef %7, ptr noundef %8, i64 noundef %9, i64 noundef %11) #13
  ret ptr %12
}

; Function Attrs: nounwind sspstrong uwtable
define internal ptr @node_new() #0 {
  %1 = alloca ptr, align 8
  call void @llvm.lifetime.start.p0(i64 8, ptr %1) #13
  %2 = call noalias ptr @malloc(i64 noundef 56) #14
  store ptr %2, ptr %1, align 8, !tbaa !68
  %3 = load ptr, ptr %1, align 8, !tbaa !68
  call void @llvm.lifetime.end.p0(i64 8, ptr %1) #13
  ret ptr %3
}

; Function Attrs: nounwind sspstrong uwtable
define dso_local ptr @onig_node_new_alt(ptr noundef %0, ptr noundef %1) #0 {
  %3 = alloca ptr, align 8
  %4 = alloca ptr, align 8
  %5 = alloca ptr, align 8
  %6 = alloca ptr, align 8
  %7 = alloca i32, align 4
  %8 = alloca i32, align 4
  store ptr %0, ptr %4, align 8, !tbaa !68
  store ptr %1, ptr %5, align 8, !tbaa !68
  call void @llvm.lifetime.start.p0(i64 8, ptr %6) #13
  %9 = call ptr @node_new()
  store ptr %9, ptr %6, align 8, !tbaa !68
  %10 = load ptr, ptr %6, align 8, !tbaa !68
  %11 = icmp eq ptr %10, null
  br i1 %11, label %12, label %13

12:                                               ; preds = %2
  store ptr null, ptr %3, align 8
  store i32 1, ptr %7, align 4
  br label %30

13:                                               ; preds = %2
  br label %14

14:                                               ; preds = %13
  call void @llvm.lifetime.start.p0(i64 4, ptr %8) #13
  store i32 9, ptr %8, align 4, !tbaa !13
  %15 = load ptr, ptr %6, align 8, !tbaa !68
  %16 = getelementptr inbounds nuw %struct._Node, ptr %15, i32 0, i32 0
  %17 = getelementptr inbounds nuw %struct.NodeBase, ptr %16, i32 0, i32 0
  %18 = call ptr @memcpy.inline(ptr noundef %17, ptr noundef %8, i64 noundef 4) #13
  call void @llvm.lifetime.end.p0(i64 4, ptr %8) #13
  br label %19

19:                                               ; preds = %14
  br label %20

20:                                               ; preds = %19
  %21 = load ptr, ptr %4, align 8, !tbaa !68
  %22 = load ptr, ptr %6, align 8, !tbaa !68
  %23 = getelementptr inbounds nuw %struct._Node, ptr %22, i32 0, i32 0
  %24 = getelementptr inbounds nuw %struct.ConsAltNode, ptr %23, i32 0, i32 1
  store ptr %21, ptr %24, align 8, !tbaa !17
  %25 = load ptr, ptr %5, align 8, !tbaa !68
  %26 = load ptr, ptr %6, align 8, !tbaa !68
  %27 = getelementptr inbounds nuw %struct._Node, ptr %26, i32 0, i32 0
  %28 = getelementptr inbounds nuw %struct.ConsAltNode, ptr %27, i32 0, i32 2
  store ptr %25, ptr %28, align 8, !tbaa !17
  %29 = load ptr, ptr %6, align 8, !tbaa !68
  store ptr %29, ptr %3, align 8
  store i32 1, ptr %7, align 4
  br label %30

30:                                               ; preds = %20, %12
  call void @llvm.lifetime.end.p0(i64 8, ptr %6) #13
  %31 = load ptr, ptr %3, align 8
  ret ptr %31
}

; Function Attrs: nounwind sspstrong uwtable
define internal i32 @cclass_case_fold(ptr noundef %0, ptr noundef %1, ptr noundef %2, ptr noundef %3) #0 {
  %5 = alloca i32, align 4
  %6 = alloca ptr, align 8
  %7 = alloca ptr, align 8
  %8 = alloca ptr, align 8
  %9 = alloca ptr, align 8
  %10 = alloca i32, align 4
  %11 = alloca %struct.IApplyCaseFoldArg, align 8
  %12 = alloca i32, align 4
  %13 = alloca ptr, align 8
  store ptr %0, ptr %6, align 8, !tbaa !92
  store ptr %1, ptr %7, align 8, !tbaa !12
  store ptr %2, ptr %8, align 8, !tbaa !12
  store ptr %3, ptr %9, align 8, !tbaa !12
  call void @llvm.lifetime.start.p0(i64 4, ptr %10) #13
  call void @llvm.lifetime.start.p0(i64 40, ptr %11) #13
  %14 = load ptr, ptr %9, align 8, !tbaa !12
  %15 = getelementptr inbounds nuw %struct.IApplyCaseFoldArg, ptr %11, i32 0, i32 0
  store ptr %14, ptr %15, align 8, !tbaa !164
  %16 = load ptr, ptr %7, align 8, !tbaa !12
  %17 = getelementptr inbounds nuw %struct.IApplyCaseFoldArg, ptr %11, i32 0, i32 1
  store ptr %16, ptr %17, align 8, !tbaa !166
  %18 = load ptr, ptr %8, align 8, !tbaa !12
  %19 = getelementptr inbounds nuw %struct.IApplyCaseFoldArg, ptr %11, i32 0, i32 2
  store ptr %18, ptr %19, align 8, !tbaa !167
  %20 = getelementptr inbounds nuw %struct.IApplyCaseFoldArg, ptr %11, i32 0, i32 3
  store ptr null, ptr %20, align 8, !tbaa !168
  %21 = getelementptr inbounds nuw %struct.IApplyCaseFoldArg, ptr %11, i32 0, i32 3
  %22 = getelementptr inbounds nuw %struct.IApplyCaseFoldArg, ptr %11, i32 0, i32 4
  store ptr %21, ptr %22, align 8, !tbaa !169
  %23 = load ptr, ptr %9, align 8, !tbaa !12
  %24 = getelementptr inbounds nuw %struct.ScanEnv, ptr %23, i32 0, i32 2
  %25 = load ptr, ptr %24, align 8, !tbaa !98
  %26 = getelementptr inbounds nuw %struct.OnigEncodingTypeST, ptr %25, i32 0, i32 9
  %27 = load ptr, ptr %26, align 8, !tbaa !170
  %28 = load ptr, ptr %9, align 8, !tbaa !12
  %29 = getelementptr inbounds nuw %struct.ScanEnv, ptr %28, i32 0, i32 1
  %30 = load i32, ptr %29, align 4, !tbaa !97
  %31 = load ptr, ptr %9, align 8, !tbaa !12
  %32 = getelementptr inbounds nuw %struct.ScanEnv, ptr %31, i32 0, i32 2
  %33 = load ptr, ptr %32, align 8, !tbaa !98
  %34 = call i32 %27(i32 noundef %30, ptr noundef @i_apply_case_fold, ptr noundef %11, ptr noundef %33)
  store i32 %34, ptr %10, align 4, !tbaa !13
  %35 = load i32, ptr %10, align 4, !tbaa !13
  %36 = icmp ne i32 %35, 0
  br i1 %36, label %37, label %41

37:                                               ; preds = %4
  %38 = getelementptr inbounds nuw %struct.IApplyCaseFoldArg, ptr %11, i32 0, i32 3
  %39 = load ptr, ptr %38, align 8, !tbaa !168
  call void @onig_node_free(ptr noundef %39)
  %40 = load i32, ptr %10, align 4, !tbaa !13
  store i32 %40, ptr %5, align 4
  store i32 1, ptr %12, align 4
  br label %64

41:                                               ; preds = %4
  %42 = getelementptr inbounds nuw %struct.IApplyCaseFoldArg, ptr %11, i32 0, i32 3
  %43 = load ptr, ptr %42, align 8, !tbaa !168
  %44 = icmp ne ptr %43, null
  br i1 %44, label %45, label %62

45:                                               ; preds = %41
  call void @llvm.lifetime.start.p0(i64 8, ptr %13) #13
  %46 = load ptr, ptr %6, align 8, !tbaa !92
  %47 = load ptr, ptr %46, align 8, !tbaa !68
  %48 = getelementptr inbounds nuw %struct.IApplyCaseFoldArg, ptr %11, i32 0, i32 3
  %49 = load ptr, ptr %48, align 8, !tbaa !168
  %50 = call ptr @onig_node_new_alt(ptr noundef %47, ptr noundef %49)
  store ptr %50, ptr %13, align 8, !tbaa !68
  %51 = load ptr, ptr %13, align 8, !tbaa !68
  %52 = icmp eq ptr %51, null
  br i1 %52, label %53, label %56

53:                                               ; preds = %45
  %54 = getelementptr inbounds nuw %struct.IApplyCaseFoldArg, ptr %11, i32 0, i32 3
  %55 = load ptr, ptr %54, align 8, !tbaa !168
  call void @onig_node_free(ptr noundef %55)
  store i32 -5, ptr %5, align 4
  store i32 1, ptr %12, align 4
  br label %59

56:                                               ; preds = %45
  %57 = load ptr, ptr %13, align 8, !tbaa !68
  %58 = load ptr, ptr %6, align 8, !tbaa !92
  store ptr %57, ptr %58, align 8, !tbaa !68
  store i32 0, ptr %12, align 4
  br label %59

59:                                               ; preds = %56, %53
  call void @llvm.lifetime.end.p0(i64 8, ptr %13) #13
  %60 = load i32, ptr %12, align 4
  switch i32 %60, label %64 [
    i32 0, label %61
  ]

61:                                               ; preds = %59
  br label %62

62:                                               ; preds = %61, %41
  %63 = load i32, ptr %10, align 4, !tbaa !13
  store i32 %63, ptr %5, align 4
  store i32 1, ptr %12, align 4
  br label %64

64:                                               ; preds = %62, %59, %37
  call void @llvm.lifetime.end.p0(i64 40, ptr %11) #13
  call void @llvm.lifetime.end.p0(i64 4, ptr %10) #13
  %65 = load i32, ptr %5, align 4
  ret i32 %65
}