; Function Attrs: nounwind sspstrong uwtable
define internal fastcc i32 @cclass_case_fold(ptr noundef nonnull captures(none) %0, ptr noundef %1, ptr noundef %2, ptr noundef %3) unnamed_addr #5 {
  %5 = alloca %struct.IApplyCaseFoldArg, align 8
  call void @llvm.lifetime.start.p0(i64 40, ptr nonnull %5) #25
  store ptr %3, ptr %5, align 8, !tbaa !135
  %6 = getelementptr inbounds nuw i8, ptr %5, i64 8
  store ptr %1, ptr %6, align 8, !tbaa !137
  %7 = getelementptr inbounds nuw i8, ptr %5, i64 16
  store ptr %2, ptr %7, align 8, !tbaa !138
  %8 = getelementptr inbounds nuw i8, ptr %5, i64 24
  store ptr null, ptr %8, align 8, !tbaa !139
  %9 = getelementptr inbounds nuw i8, ptr %5, i64 32
  store ptr %8, ptr %9, align 8, !tbaa !140
  %10 = getelementptr inbounds nuw i8, ptr %3, i64 8
  %11 = load ptr, ptr %10, align 8, !tbaa !84
  %12 = getelementptr inbounds nuw i8, ptr %11, i64 64
  %13 = load ptr, ptr %12, align 8, !tbaa !141
  %14 = getelementptr inbounds nuw i8, ptr %3, i64 4
  %15 = load i32, ptr %14, align 4, !tbaa !83
  %16 = call i32 %13(i32 noundef %15, ptr noundef nonnull @i_apply_case_fold, ptr noundef nonnull %5, ptr noundef %11) #25
  %.not = icmp eq i32 %16, 0
  %17 = load ptr, ptr %8, align 8, !tbaa !139
  br i1 %.not, label %19, label %18

18:                                               ; preds = %4
  call void @onig_node_free(ptr noundef %17)
  br label %27

19:                                               ; preds = %4
  %.not18 = icmp eq ptr %17, null
  br i1 %.not18, label %27, label %20

20:                                               ; preds = %19
  %21 = load ptr, ptr %0, align 8, !tbaa !89
  %22 = call noalias noundef dereferenceable_or_null(56) ptr @malloc(i64 noundef 56) #26
  %23 = icmp eq ptr %22, null
  br i1 %23, label %.thread, label %24

.thread:                                          ; preds = %20
  call void @onig_node_free(ptr noundef nonnull %17)
  br label %27

24:                                               ; preds = %20
  store i32 9, ptr %22, align 1
  %25 = getelementptr inbounds nuw i8, ptr %22, i64 8
  store ptr %21, ptr %25, align 8, !tbaa !13
  %26 = getelementptr inbounds nuw i8, ptr %22, i64 16
  store ptr %17, ptr %26, align 8, !tbaa !13
  store ptr %22, ptr %0, align 8, !tbaa !89
  br label %27

27:                                               ; preds = %19, %24, %.thread, %18
  %.0 = phi i32 [ %16, %18 ], [ -5, %.thread ], [ 0, %24 ], [ 0, %19 ]
  call void @llvm.lifetime.end.p0(i64 40, ptr nonnull %5) #25
  ret i32 %.0
}